; Function Attrs: mustprogress uwtable
define hidden noundef ptr @_ZN4ncnn18create_layer_naiveEi(i32 noundef %0) local_unnamed_addr #2 {
  %or.cond = icmp ugt i32 %0, 106
  br i1 %or.cond, label %9, label %2

2:                                                ; preds = %1
  switch i32 %0, label %3 [
    i32 34, label %9
    i32 1, label %9
  ]

3:                                                ; preds = %2
  %4 = zext nneg i32 %0 to i64
  %5 = getelementptr inbounds nuw [107 x %"struct.ncnn::layer_registry_entry"], ptr @_ZN4ncnnL14layer_registryE, i64 0, i64 %4, i32 1
  %6 = load ptr, ptr %5, align 8, !tbaa !68
  %7 = tail call noundef ptr %6(ptr noundef null)
  %8 = getelementptr inbounds nuw i8, ptr %7, i64 40
  store i32 %0, ptr %8, align 8, !tbaa !51
  br label %9

9:                                                ; preds = %3, %2, %2, %1
  %.0 = phi ptr [ null, %1 ], [ %7, %3 ], [ null, %2 ], [ null, %2 ]
  ret ptr %.0
}